; Function Attrs: mustprogress uwtable
define void @_ZN3net17QuicPacketCreator5FlushEv(ptr noundef nonnull align 8 dereferenceable(312) %0) local_unnamed_addr #0 align 2 {
  %2 = alloca [1452 x i8], align 64
  %3 = getelementptr inbounds nuw i8, ptr %0, i64 120
  %4 = load ptr, ptr %3, align 8, !tbaa !88
  %5 = getelementptr inbounds nuw i8, ptr %0, i64 128
  %6 = load ptr, ptr %5, align 8, !tbaa !88
  %.not = icmp eq ptr %4, %6
  br i1 %.not, label %8, label %7

7:                                                ; preds = %1
  call void @llvm.lifetime.start.p0(i64 1452, ptr nonnull %2) #21
  call void @_ZN3net17QuicPacketCreator15SerializePacketEPcm(ptr noundef nonnull align 8 dereferenceable(312) %0, ptr noundef nonnull %2, i64 noundef 1452)
  call void @_ZN3net17QuicPacketCreator18OnSerializedPacketEv(ptr noundef nonnull align 8 dereferenceable(312) %0)
  call void @llvm.lifetime.end.p0(i64 1452, ptr nonnull %2) #21
  br label %8

8:                                                ; preds = %1, %7
  ret void
}